target datalayout = "e-m:e-p270:32:32-p271:32:32-p272:64:64-i64:64-i128:128-f80:128-n8:16:32:64-S128"
target triple = "x86_64-unknown-linux-gnu"

%struct.MOZ_Z_internal_state = type { ptr, i32, ptr, i64, ptr, i32, i32, ptr, i32, i8, i32, [12 x i8], [20 x i32], i32, i32, i32, ptr, i64, ptr, ptr, i32, i32, i32, i32, i32, ptr, [256 x i32], i64, i32, i32, i32, i32, i32, i32, i32, i32, i32, i32, i32, i32, i32, [573 x %struct.ct_data_s], [61 x %struct.ct_data_s], [39 x %struct.ct_data_s], %struct.tree_desc_s, %struct.tree_desc_s, %struct.tree_desc_s, [16 x i16], [573 x i32], i32, i32, [573 x i8], ptr, i32, i32, ptr, i64, i64, i32, i32, i16, i32, i64, [8 x i8] }
%struct.ct_data_s = type { %union.anon, %union.anon.0 }
%union.anon = type { i16 }
%union.anon.0 = type { i16 }
%struct.tree_desc_s = type { ptr, i32, ptr }
%struct.z_stream_s = type { ptr, i32, i64, ptr, i32, i64, ptr, ptr, ptr, ptr, ptr, i32, i64, i64, i32 }

@x86_cpu_enable_simd = external global i32, align 4

; Function Attrs: nounwind uwtable
define dso_local void @MOZ_Z__crc_finalize(ptr noundef %s) #0 {
entry:
  %s.addr = alloca ptr, align 8
  store ptr %s, ptr %s.addr, align 8
  %0 = load i32, ptr @x86_cpu_enable_simd, align 4
  %tobool = icmp ne i32 %0, 0
  br i1 %tobool, label %if.then, label %if.end

if.then:                                          ; preds = %entry
  %1 = load ptr, ptr %s.addr, align 8
  %call = call i32 @crc_fold_512to32(ptr noundef %1)
  %conv = zext i32 %call to i64
  %2 = load ptr, ptr %s.addr, align 8
  %strm = getelementptr inbounds %struct.MOZ_Z_internal_state, ptr %2, i32 0, i32 0
  %3 = load ptr, ptr %strm, align 16
  %adler = getelementptr inbounds %struct.z_stream_s, ptr %3, i32 0, i32 12
  store i64 %conv, ptr %adler, align 8
  br label %if.end

if.end:                                           ; preds = %if.then, %entry
  ret void
}