; Function Attrs: nounwind uwtable
define dso_local void @MOZ_Z__crc_finalize(ptr noundef %s) local_unnamed_addr #3 {
entry:
  %0 = load i32, ptr @x86_cpu_enable_simd, align 4
  %tobool.not = icmp eq i32 %0, 0
  br i1 %tobool.not, label %if.end, label %if.then

if.then:                                          ; preds = %entry
  %call = tail call i32 @crc_fold_512to32(ptr noundef %s) #6
  %conv = zext i32 %call to i64
  %1 = load ptr, ptr %s, align 16
  %adler = getelementptr inbounds nuw i8, ptr %1, i64 96
  store i64 %conv, ptr %adler, align 8
  br label %if.end

if.end:                                           ; preds = %if.then, %entry
  ret void
}